; ModuleID = '62/357.c'
source_filename = "62/357.c"
target datalayout = "e-m:e-p270:32:32-p271:32:32-p272:64:64-i64:64-f80:128-n8:16:32:64-S128"
target triple = "x86_64-pc-linux-gnu"

; Function Attrs: noinline nounwind uwtable
define dso_local i32 @main() #0 {
  %1 = alloca i32, align 4
  %2 = alloca [200 x i8], align 16
  %3 = alloca [200 x i8], align 16
  %4 = alloca i32, align 4
  %5 = alloca i32, align 4
  store i32 0, i32* %1, align 4
  %6 = getelementptr inbounds [200 x i8], [200 x i8]* %2, i64 0, i64 0
  %7 = call i32 (i8*, ...) bitcast (i32 (...)* @gets to i32 (i8*, ...)*)(i8* %6)
  store i32 0, i32* %5, align 4
  store i32 0, i32* %4, align 4
  br label %8

8:                                                ; preds = %64, %0
  %9 = load i32, i32* %4, align 4
  %10 = sext i32 %9 to i64
  %11 = getelementptr inbounds [200 x i8], [200 x i8]* %2, i64 0, i64 %10
  %12 = load i8, i8* %11, align 1
  %13 = sext i8 %12 to i32
  %14 = icmp ne i32 %13, 0
  br i1 %14, label %15, label %67

15:                                               ; preds = %8
  %16 = load i32, i32* %4, align 4
  %17 = sext i32 %16 to i64
  %18 = getelementptr inbounds [200 x i8], [200 x i8]* %2, i64 0, i64 %17
  %19 = load i8, i8* %18, align 1
  %20 = sext i8 %19 to i32
  %21 = icmp ne i32 %20, 32
  br i1 %21, label %22, label %32

22:                                               ; preds = %15
  %23 = load i32, i32* %4, align 4
  %24 = sext i32 %23 to i64
  %25 = getelementptr inbounds [200 x i8], [200 x i8]* %2, i64 0, i64 %24
  %26 = load i8, i8* %25, align 1
  %27 = load i32, i32* %5, align 4
  %28 = sext i32 %27 to i64
  %29 = getelementptr inbounds [200 x i8], [200 x i8]* %3, i64 0, i64 %28
  store i8 %26, i8* %29, align 1
  %30 = load i32, i32* %5, align 4
  %31 = add nsw i32 %30, 1
  store i32 %31, i32* %5, align 4
  br label %63

32:                                               ; preds = %15
  %33 = load i32, i32* %4, align 4
  %34 = add nsw i32 %33, 1
  %35 = sext i32 %34 to i64
  %36 = getelementptr inbounds [200 x i8], [200 x i8]* %2, i64 0, i64 %35
  %37 = load i8, i8* %36, align 1
  %38 = sext i8 %37 to i32
  %39 = icmp ne i32 %38, 32
  br i1 %39, label %40, label %61

40:                                               ; preds = %32
  %41 = load i32, i32* %4, align 4
  %42 = sext i32 %41 to i64
  %43 = getelementptr inbounds [200 x i8], [200 x i8]* %2, i64 0, i64 %42
  %44 = load i8, i8* %43, align 1
  %45 = load i32, i32* %5, align 4
  %46 = sext i32 %45 to i64
  %47 = getelementptr inbounds [200 x i8], [200 x i8]* %3, i64 0, i64 %46
  store i8 %44, i8* %47, align 1
  %48 = load i32, i32* %4, align 4
  %49 = add nsw i32 %48, 1
  %50 = sext i32 %49 to i64
  %51 = getelementptr inbounds [200 x i8], [200 x i8]* %2, i64 0, i64 %50
  %52 = load i8, i8* %51, align 1
  %53 = load i32, i32* %5, align 4
  %54 = add nsw i32 %53, 1
  %55 = sext i32 %54 to i64
  %56 = getelementptr inbounds [200 x i8], [200 x i8]* %3, i64 0, i64 %55
  store i8 %52, i8* %56, align 1
  %57 = load i32, i32* %5, align 4
  %58 = add nsw i32 %57, 2
  store i32 %58, i32* %5, align 4
  %59 = load i32, i32* %4, align 4
  %60 = add nsw i32 %59, 1
  store i32 %60, i32* %4, align 4
  br label %62

61:                                               ; preds = %32
  br label %64

62:                                               ; preds = %40
  br label %63

63:                                               ; preds = %62, %22
  br label %64

64:                                               ; preds = %63, %61
  %65 = load i32, i32* %4, align 4
  %66 = add nsw i32 %65, 1
  store i32 %66, i32* %4, align 4
  br label %8

67:                                               ; preds = %8
  %68 = load i32, i32* %5, align 4
  %69 = sext i32 %68 to i64
  %70 = getelementptr inbounds [200 x i8], [200 x i8]* %3, i64 0, i64 %69
  store i8 0, i8* %70, align 1
  %71 = getelementptr inbounds [200 x i8], [200 x i8]* %3, i64 0, i64 0
  %72 = call i32 @puts(i8* %71)
  ret i32 0
}

declare dso_local i32 @gets(...) #1

declare dso_local i32 @puts(i8*) #1


!llvm.module.flags = !{!0}
!llvm.ident = !{!1}

!0 = !{i32 1, !"wchar_size", i32 4}
!1 = !{!"clang version 10.0.0-4ubuntu1 "}
