; ModuleID = 'source-C-CXX/61/357.c'
source_filename = "source-C-CXX/61/357.c"
target datalayout = "e-m:e-p270:32:32-p271:32:32-p272:64:64-i64:64-f80:128-n8:16:32:64-S128"
target triple = "x86_64-pc-linux-gnu"

; Function Attrs: nounwind sspstrong uwtable
define dso_local i32 @main() local_unnamed_addr #0 {
  %1 = alloca [200 x i8], align 16
  %2 = alloca [200 x i8], align 16
  %3 = getelementptr inbounds [200 x i8], [200 x i8]* %1, i64 0, i64 0
  call void @llvm.lifetime.start.p0i8(i64 200, i8* nonnull %3) #4
  %4 = getelementptr inbounds [200 x i8], [200 x i8]* %2, i64 0, i64 0
  call void @llvm.lifetime.start.p0i8(i64 200, i8* nonnull %4) #4
  %5 = call i32 (i8*, ...) bitcast (i32 (...)* @gets to i32 (i8*, ...)*)(i8* nonnull %3) #4
  br label %6

6:                                                ; preds = %30, %0
  %7 = phi i32 [ 0, %0 ], [ %33, %30 ]
  %8 = phi i32 [ 0, %0 ], [ %32, %30 ]
  %9 = sext i32 %7 to i64
  %10 = getelementptr inbounds [200 x i8], [200 x i8]* %1, i64 0, i64 %9
  %11 = load i8, i8* %10, align 1, !tbaa !5
  switch i8 %11, label %22 [
    i8 0, label %34
    i8 32, label %12
  ]

12:                                               ; preds = %6
  %13 = add nsw i32 %7, 1
  %14 = sext i32 %13 to i64
  %15 = getelementptr inbounds [200 x i8], [200 x i8]* %1, i64 0, i64 %14
  %16 = load i8, i8* %15, align 1, !tbaa !5
  %17 = icmp eq i8 %16, 32
  br i1 %17, label %30, label %18

18:                                               ; preds = %12
  %19 = sext i32 %8 to i64
  %20 = getelementptr inbounds [200 x i8], [200 x i8]* %2, i64 0, i64 %19
  store i8 32, i8* %20, align 1, !tbaa !5
  %21 = add nsw i32 %8, 1
  br label %22

22:                                               ; preds = %6, %18
  %23 = phi i32 [ %21, %18 ], [ %8, %6 ]
  %24 = phi i8 [ %16, %18 ], [ %11, %6 ]
  %25 = phi i32 [ 2, %18 ], [ 1, %6 ]
  %26 = phi i32 [ %13, %18 ], [ %7, %6 ]
  %27 = sext i32 %23 to i64
  %28 = getelementptr inbounds [200 x i8], [200 x i8]* %2, i64 0, i64 %27
  store i8 %24, i8* %28, align 1, !tbaa !5
  %29 = add nsw i32 %8, %25
  br label %30

30:                                               ; preds = %22, %12
  %31 = phi i32 [ %7, %12 ], [ %26, %22 ]
  %32 = phi i32 [ %8, %12 ], [ %29, %22 ]
  %33 = add nsw i32 %31, 1
  br label %6, !llvm.loop !8

34:                                               ; preds = %6
  %35 = sext i32 %8 to i64
  %36 = getelementptr inbounds [200 x i8], [200 x i8]* %2, i64 0, i64 %35
  store i8 0, i8* %36, align 1, !tbaa !5
  %37 = call i32 @puts(i8* nonnull %4)
  call void @llvm.lifetime.end.p0i8(i64 200, i8* nonnull %4) #4
  call void @llvm.lifetime.end.p0i8(i64 200, i8* nonnull %3) #4
  ret i32 0
}

; Function Attrs: argmemonly mustprogress nofree nosync nounwind willreturn
declare void @llvm.lifetime.start.p0i8(i64 immarg, i8* nocapture) #1

declare i32 @gets(...) local_unnamed_addr #2

; Function Attrs: nofree nounwind
declare noundef i32 @puts(i8* nocapture noundef readonly) local_unnamed_addr #3

; Function Attrs: argmemonly mustprogress nofree nosync nounwind willreturn
declare void @llvm.lifetime.end.p0i8(i64 immarg, i8* nocapture) #1


!llvm.module.flags = !{!0, !1, !2, !3}
!llvm.ident = !{!4}

!0 = !{i32 1, !"wchar_size", i32 4}
!1 = !{i32 7, !"PIC Level", i32 2}
!2 = !{i32 7, !"PIE Level", i32 2}
!3 = !{i32 7, !"uwtable", i32 1}
!4 = !{!"clang version 13.0.0"}
!5 = !{!6, !6, i64 0}
!6 = !{!"omnipotent char", !7, i64 0}
!7 = !{!"Simple C/C++ TBAA"}
!8 = distinct !{!8, !9}
!9 = !{!"llvm.loop.mustprogress"}
